target datalayout = "e-m:e-p270:32:32-p271:32:32-p272:64:64-i64:64-i128:128-f80:128-n8:16:32:64-S128"
target triple = "x86_64-pc-linux-gnu"

%"class.gmx::analysismodules::(anonymous namespace)::ExtractCluster" = type { %"class.gmx::TrajectoryAnalysisModule", %"class.std::vector", %"class.gmx::Selection", %"class.std::__cxx11::basic_string", %"class.std::__cxx11::basic_string", %"class.gmx::OutputRequirementOptionDirector", %"class.std::optional" }
%"class.gmx::TrajectoryAnalysisModule" = type { ptr, %"class.std::unique_ptr.2" }
%"class.std::unique_ptr.2" = type { %"struct.std::__uniq_ptr_data.3" }
%"struct.std::__uniq_ptr_data.3" = type { %"class.std::__uniq_ptr_impl.4" }
%"class.std::__uniq_ptr_impl.4" = type { %"class.std::tuple.5" }
%"class.std::tuple.5" = type { %"struct.std::_Tuple_impl.6" }
%"struct.std::_Tuple_impl.6" = type { %"struct.std::_Head_base.9" }
%"struct.std::_Head_base.9" = type { ptr }
%"class.std::vector" = type { %"struct.std::_Vector_base" }
%"struct.std::_Vector_base" = type { %"struct.std::_Vector_base<std::unique_ptr<gmx::TrajectoryFrameWriter>, std::allocator<std::unique_ptr<gmx::TrajectoryFrameWriter>>>::_Vector_impl" }
%"struct.std::_Vector_base<std::unique_ptr<gmx::TrajectoryFrameWriter>, std::allocator<std::unique_ptr<gmx::TrajectoryFrameWriter>>>::_Vector_impl" = type { %"struct.std::_Vector_base<std::unique_ptr<gmx::TrajectoryFrameWriter>, std::allocator<std::unique_ptr<gmx::TrajectoryFrameWriter>>>::_Vector_impl_data" }
%"struct.std::_Vector_base<std::unique_ptr<gmx::TrajectoryFrameWriter>, std::allocator<std::unique_ptr<gmx::TrajectoryFrameWriter>>>::_Vector_impl_data" = type { ptr, ptr, ptr }
%"class.gmx::Selection" = type { ptr }
%"class.std::__cxx11::basic_string" = type { %"struct.std::__cxx11::basic_string<char>::_Alloc_hider", i64, %union.anon }
%"struct.std::__cxx11::basic_string<char>::_Alloc_hider" = type { ptr }
%union.anon = type { i64, [8 x i8] }
%"class.gmx::OutputRequirementOptionDirector" = type { i32, i32, i32, i8, float, float, i8, i8, %"class.std::vector.13", i8, i32 }
%"class.std::vector.13" = type { %"struct.std::_Vector_base.14" }
%"struct.std::_Vector_base.14" = type { %"struct.std::_Vector_base<float, std::allocator<float>>::_Vector_impl" }
%"struct.std::_Vector_base<float, std::allocator<float>>::_Vector_impl" = type { %"struct.std::_Vector_base<float, std::allocator<float>>::_Vector_impl_data" }
%"struct.std::_Vector_base<float, std::allocator<float>>::_Vector_impl_data" = type { ptr, ptr, ptr }
%"class.std::optional" = type { %"struct.std::_Optional_base" }
%"struct.std::_Optional_base" = type { %"struct.std::_Optional_payload" }
%"struct.std::_Optional_payload" = type { %"struct.std::_Optional_payload.base", [7 x i8] }
%"struct.std::_Optional_payload.base" = type { %"struct.std::_Optional_payload_base.base" }
%"struct.std::_Optional_payload_base.base" = type <{ %"union.std::_Optional_payload_base<t_cluster_ndx>::_Storage", i8 }>
%"union.std::_Optional_payload_base<t_cluster_ndx>::_Storage" = type { %struct.t_cluster_ndx }
%struct.t_cluster_ndx = type { i32, %"class.std::vector.19", %"class.std::vector.24" }
%"class.std::vector.19" = type { %"struct.std::_Vector_base.20" }
%"struct.std::_Vector_base.20" = type { %"struct.std::_Vector_base<IndexGroup, std::allocator<IndexGroup>>::_Vector_impl" }
%"struct.std::_Vector_base<IndexGroup, std::allocator<IndexGroup>>::_Vector_impl" = type { %"struct.std::_Vector_base<IndexGroup, std::allocator<IndexGroup>>::_Vector_impl_data" }
%"struct.std::_Vector_base<IndexGroup, std::allocator<IndexGroup>>::_Vector_impl_data" = type { ptr, ptr, ptr }
%"class.std::vector.24" = type { %"struct.std::_Vector_base.25" }
%"struct.std::_Vector_base.25" = type { %"struct.std::_Vector_base<int, std::allocator<int>>::_Vector_impl" }
%"struct.std::_Vector_base<int, std::allocator<int>>::_Vector_impl" = type { %"struct.std::_Vector_base<int, std::allocator<int>>::_Vector_impl_data" }
%"struct.std::_Vector_base<int, std::allocator<int>>::_Vector_impl_data" = type { ptr, ptr, ptr }
%"class.std::unique_ptr.30" = type { %"struct.std::__uniq_ptr_data.31" }
%"struct.std::__uniq_ptr_data.31" = type { %"class.std::__uniq_ptr_impl.32" }
%"class.std::__uniq_ptr_impl.32" = type { %"class.std::tuple.33" }
%"class.std::tuple.33" = type { %"struct.std::_Tuple_impl.34" }
%"struct.std::_Tuple_impl.34" = type { %"struct.std::_Head_base.37" }
%"struct.std::_Head_base.37" = type { ptr }
%"struct.std::_Optional_payload_base" = type <{ %"union.std::_Optional_payload_base<t_cluster_ndx>::_Storage", i8, [7 x i8] }>

@.str.18 = private unnamed_addr constant [40 x i8] c"Frame %d was not found in any cluster!\0A\00", align 1

; Function Attrs: mustprogress nounwind uwtable
define linkonce_odr noundef nonnull align 8 dereferenceable(8) ptr @_ZNSt10_Head_baseILm0EPN3gmx21TrajectoryFrameWriterELb0EE7_M_headERKS3_(ptr noundef nonnull align 8 dereferenceable(8) %0) #3 comdat align 2 {
  %2 = alloca ptr, align 8
  store ptr %0, ptr %2, align 8, !tbaa !151
  %3 = load ptr, ptr %2, align 8, !tbaa !151
  %4 = getelementptr inbounds nuw %"struct.std::_Head_base.37", ptr %3, i32 0, i32 0
  ret ptr %4
}

; Function Attrs: mustprogress nounwind uwtable
define linkonce_odr noundef nonnull align 8 dereferenceable(8) ptr @_ZNSt11_Tuple_implILm0EJPN3gmx21TrajectoryFrameWriterESt14default_deleteIS1_EEE7_M_headERKS5_(ptr noundef nonnull align 8 dereferenceable(8) %0) #3 comdat align 2 {
  %2 = alloca ptr, align 8
  store ptr %0, ptr %2, align 8, !tbaa !149
  %3 = load ptr, ptr %2, align 8, !tbaa !149
  %4 = call noundef nonnull align 8 dereferenceable(8) ptr @_ZNSt10_Head_baseILm0EPN3gmx21TrajectoryFrameWriterELb0EE7_M_headERKS3_(ptr noundef nonnull align 8 dereferenceable(8) %3) #18
  ret ptr %4
}

; Function Attrs: mustprogress nounwind uwtable
define linkonce_odr noundef nonnull align 8 dereferenceable(8) ptr @_ZSt12__get_helperILm0EPN3gmx21TrajectoryFrameWriterEJSt14default_deleteIS1_EEERKT0_RKSt11_Tuple_implIXT_EJS5_DpT1_EE(ptr noundef nonnull align 8 dereferenceable(8) %0) #3 comdat {
  %2 = alloca ptr, align 8
  store ptr %0, ptr %2, align 8, !tbaa !149
  %3 = load ptr, ptr %2, align 8, !tbaa !149
  %4 = call noundef nonnull align 8 dereferenceable(8) ptr @_ZNSt11_Tuple_implILm0EJPN3gmx21TrajectoryFrameWriterESt14default_deleteIS1_EEE7_M_headERKS5_(ptr noundef nonnull align 8 dereferenceable(8) %3) #18
  ret ptr %4
}

; Function Attrs: mustprogress nounwind uwtable
define linkonce_odr noundef nonnull align 8 dereferenceable(8) ptr @_ZSt3getILm0EJPN3gmx21TrajectoryFrameWriterESt14default_deleteIS1_EEERKNSt13tuple_elementIXT_ESt5tupleIJDpT0_EEE4typeERKS9_(ptr noundef nonnull align 8 dereferenceable(8) %0) #3 comdat {
  %2 = alloca ptr, align 8
  store ptr %0, ptr %2, align 8, !tbaa !147
  %3 = load ptr, ptr %2, align 8, !tbaa !147
  %4 = call noundef nonnull align 8 dereferenceable(8) ptr @_ZSt12__get_helperILm0EPN3gmx21TrajectoryFrameWriterEJSt14default_deleteIS1_EEERKT0_RKSt11_Tuple_implIXT_EJS5_DpT1_EE(ptr noundef nonnull align 8 dereferenceable(8) %3) #18
  ret ptr %4
}

; Function Attrs: mustprogress nounwind uwtable
define linkonce_odr noundef ptr @_ZNKSt15__uniq_ptr_implIN3gmx21TrajectoryFrameWriterESt14default_deleteIS1_EE6_M_ptrEv(ptr noundef nonnull align 8 dereferenceable(8) %0) #3 comdat align 2 {
  %2 = alloca ptr, align 8
  store ptr %0, ptr %2, align 8, !tbaa !143
  %3 = load ptr, ptr %2, align 8
  %4 = getelementptr inbounds nuw %"class.std::__uniq_ptr_impl.32", ptr %3, i32 0, i32 0
  %5 = call noundef nonnull align 8 dereferenceable(8) ptr @_ZSt3getILm0EJPN3gmx21TrajectoryFrameWriterESt14default_deleteIS1_EEERKNSt13tuple_elementIXT_ESt5tupleIJDpT0_EEE4typeERKS9_(ptr noundef nonnull align 8 dereferenceable(8) %4) #18
  %6 = load ptr, ptr %5, align 8, !tbaa !141
  ret ptr %6
}

; Function Attrs: mustprogress nounwind uwtable
define linkonce_odr noundef nonnull align 8 dereferenceable(56) ptr @_ZNSt22_Optional_payload_baseI13t_cluster_ndxE6_M_getEv(ptr noundef nonnull align 8 dereferenceable(57) %0) #3 comdat align 2 {
  %2 = alloca ptr, align 8
  store ptr %0, ptr %2, align 8, !tbaa !129
  %3 = load ptr, ptr %2, align 8
  %4 = getelementptr inbounds nuw %"struct.std::_Optional_payload_base", ptr %3, i32 0, i32 0
  ret ptr %4
}

; Function Attrs: mustprogress nounwind uwtable
define linkonce_odr noundef ptr @_ZNKSt10unique_ptrIN3gmx21TrajectoryFrameWriterESt14default_deleteIS1_EE3getEv(ptr noundef nonnull align 8 dereferenceable(8) %0) #3 comdat align 2 {
  %2 = alloca ptr, align 8
  store ptr %0, ptr %2, align 8, !tbaa !135
  %3 = load ptr, ptr %2, align 8
  %4 = getelementptr inbounds nuw %"class.std::unique_ptr.30", ptr %3, i32 0, i32 0
  %5 = call noundef ptr @_ZNKSt15__uniq_ptr_implIN3gmx21TrajectoryFrameWriterESt14default_deleteIS1_EE6_M_ptrEv(ptr noundef nonnull align 8 dereferenceable(8) %4) #18
  ret ptr %5
}

; Function Attrs: mustprogress nounwind uwtable
define linkonce_odr noundef i64 @_ZNKSt6vectorI10IndexGroupSaIS0_EE4sizeEv(ptr noundef nonnull align 8 dereferenceable(24) %0) #3 comdat align 2 {
  %2 = alloca ptr, align 8
  store ptr %0, ptr %2, align 8, !tbaa !60
  %3 = load ptr, ptr %2, align 8
  %4 = getelementptr inbounds nuw %"struct.std::_Vector_base.20", ptr %3, i32 0, i32 0
  %5 = getelementptr inbounds nuw %"struct.std::_Vector_base<IndexGroup, std::allocator<IndexGroup>>::_Vector_impl_data", ptr %4, i32 0, i32 1
  %6 = load ptr, ptr %5, align 8, !tbaa !212
  %7 = getelementptr inbounds nuw %"struct.std::_Vector_base.20", ptr %3, i32 0, i32 0
  %8 = getelementptr inbounds nuw %"struct.std::_Vector_base<IndexGroup, std::allocator<IndexGroup>>::_Vector_impl_data", ptr %7, i32 0, i32 0
  %9 = load ptr, ptr %8, align 8, !tbaa !211
  %10 = ptrtoint ptr %6 to i64
  %11 = ptrtoint ptr %9 to i64
  %12 = sub i64 %10, %11
  %13 = sdiv exact i64 %12, 56
  ret i64 %13
}

; Function Attrs: mustprogress nounwind uwtable
define linkonce_odr noundef nonnull align 8 dereferenceable(56) ptr @_ZNSt19_Optional_base_implI13t_cluster_ndxSt14_Optional_baseIS0_Lb0ELb0EEE6_M_getEv(ptr noundef nonnull align 1 dereferenceable(1) %0) #3 comdat align 2 {
  %2 = alloca ptr, align 8
  store ptr %0, ptr %2, align 8, !tbaa !290
  %3 = load ptr, ptr %2, align 8
  br label %4

4:                                                ; preds = %1
  br label %5

5:                                                ; preds = %4
  br label %6

6:                                                ; preds = %5
  %7 = getelementptr inbounds nuw %"struct.std::_Optional_base", ptr %3, i32 0, i32 0
  %8 = call noundef nonnull align 8 dereferenceable(56) ptr @_ZNSt22_Optional_payload_baseI13t_cluster_ndxE6_M_getEv(ptr noundef nonnull align 8 dereferenceable(57) %7) #18
  ret ptr %8
}

; Function Attrs: mustprogress nounwind uwtable
define linkonce_odr noundef ptr @_ZNKSt10unique_ptrIN3gmx21TrajectoryFrameWriterESt14default_deleteIS1_EEptEv(ptr noundef nonnull align 8 dereferenceable(8) %0) #3 comdat align 2 {
  %2 = alloca ptr, align 8
  store ptr %0, ptr %2, align 8, !tbaa !135
  %3 = load ptr, ptr %2, align 8
  %4 = call noundef ptr @_ZNKSt10unique_ptrIN3gmx21TrajectoryFrameWriterESt14default_deleteIS1_EE3getEv(ptr noundef nonnull align 8 dereferenceable(8) %3) #18
  ret ptr %4
}

; Function Attrs: mustprogress nounwind uwtable
define linkonce_odr noundef nonnull align 8 dereferenceable(8) ptr @_ZNSt6vectorISt10unique_ptrIN3gmx21TrajectoryFrameWriterESt14default_deleteIS2_EESaIS5_EEixEm(ptr noundef nonnull align 8 dereferenceable(24) %0, i64 noundef %1) #3 comdat align 2 {
  %3 = alloca ptr, align 8
  %4 = alloca i64, align 8
  store ptr %0, ptr %3, align 8, !tbaa !15
  store i64 %1, ptr %4, align 8, !tbaa !100
  %5 = load ptr, ptr %3, align 8
  %6 = getelementptr inbounds nuw %"struct.std::_Vector_base", ptr %5, i32 0, i32 0
  %7 = getelementptr inbounds nuw %"struct.std::_Vector_base<std::unique_ptr<gmx::TrajectoryFrameWriter>, std::allocator<std::unique_ptr<gmx::TrajectoryFrameWriter>>>::_Vector_impl_data", ptr %6, i32 0, i32 0
  %8 = load ptr, ptr %7, align 8, !tbaa !49
  %9 = load i64, ptr %4, align 8, !tbaa !100
  %10 = getelementptr inbounds nuw %"class.std::unique_ptr.30", ptr %8, i64 %9
  ret ptr %10
}

; Function Attrs: mustprogress nounwind uwtable
define linkonce_odr noundef i64 @_ZN3gmx5ssizeISt6vectorI10IndexGroupSaIS2_EEEElRKT_(ptr noundef nonnull align 8 dereferenceable(24) %0) #3 comdat {
  %2 = alloca ptr, align 8
  store ptr %0, ptr %2, align 8, !tbaa !60
  %3 = load ptr, ptr %2, align 8, !tbaa !60
  %4 = call noundef i64 @_ZNKSt6vectorI10IndexGroupSaIS0_EE4sizeEv(ptr noundef nonnull align 8 dereferenceable(24) %3) #18
  ret i64 %4
}

; Function Attrs: mustprogress nounwind uwtable
define linkonce_odr noundef nonnull align 4 dereferenceable(4) ptr @_ZNSt6vectorIiSaIiEEixEm(ptr noundef nonnull align 8 dereferenceable(24) %0, i64 noundef %1) #3 comdat align 2 {
  %3 = alloca ptr, align 8
  %4 = alloca i64, align 8
  store ptr %0, ptr %3, align 8, !tbaa !157
  store i64 %1, ptr %4, align 8, !tbaa !100
  %5 = load ptr, ptr %3, align 8
  %6 = getelementptr inbounds nuw %"struct.std::_Vector_base.25", ptr %5, i32 0, i32 0
  %7 = getelementptr inbounds nuw %"struct.std::_Vector_base<int, std::allocator<int>>::_Vector_impl_data", ptr %6, i32 0, i32 0
  %8 = load ptr, ptr %7, align 8, !tbaa !159
  %9 = load i64, ptr %4, align 8, !tbaa !100
  %10 = getelementptr inbounds nuw i32, ptr %8, i64 %9
  ret ptr %10
}

; Function Attrs: mustprogress nounwind uwtable
define linkonce_odr noundef ptr @_ZNSt8optionalI13t_cluster_ndxEptEv(ptr noundef nonnull align 8 dereferenceable(64) %0) #3 comdat align 2 {
  %2 = alloca ptr, align 8
  store ptr %0, ptr %2, align 8, !tbaa !47
  %3 = load ptr, ptr %2, align 8
  %4 = call noundef nonnull align 8 dereferenceable(56) ptr @_ZNSt19_Optional_base_implI13t_cluster_ndxSt14_Optional_baseIS0_Lb0ELb0EEE6_M_getEv(ptr noundef nonnull align 1 dereferenceable(1) %3) #18
  ret ptr %4
}

; Function Attrs: mustprogress uwtable
define internal void @_ZN3gmx15analysismodules12_GLOBAL__N_114ExtractCluster12analyzeFrameEiRK10t_trxframeP5t_pbcPNS_28TrajectoryAnalysisModuleDataE(ptr noundef nonnull align 8 dereferenceable(240) %0, i32 noundef %1, ptr noundef nonnull align 1 %2, ptr noundef %3, ptr noundef %4) unnamed_addr #0 align 2 {
  %6 = alloca ptr, align 8
  %7 = alloca i32, align 4
  %8 = alloca ptr, align 8
  %9 = alloca ptr, align 8
  %10 = alloca ptr, align 8
  %11 = alloca i32, align 4
  %12 = alloca i32, align 4
  store ptr %0, ptr %6, align 8, !tbaa !4
  store i32 %1, ptr %7, align 4, !tbaa !57
  store ptr %2, ptr %8, align 8, !tbaa !64
  store ptr %3, ptr %9, align 8, !tbaa !66
  store ptr %4, ptr %10, align 8, !tbaa !68
  %13 = load ptr, ptr %6, align 8
  call void @llvm.lifetime.start.p0(i64 4, ptr %11) #18
  %14 = getelementptr inbounds nuw %"class.gmx::analysismodules::(anonymous namespace)::ExtractCluster", ptr %13, i32 0, i32 6
  %15 = call noundef ptr @_ZNSt8optionalI13t_cluster_ndxEptEv(ptr noundef nonnull align 8 dereferenceable(64) %14) #18
  %16 = getelementptr inbounds nuw %struct.t_cluster_ndx, ptr %15, i32 0, i32 0
  %17 = load i32, ptr %16, align 8, !tbaa !70
  store i32 %17, ptr %11, align 4, !tbaa !57
  %18 = load i32, ptr %7, align 4, !tbaa !57
  %19 = load i32, ptr %11, align 4, !tbaa !57
  %20 = icmp sle i32 %18, %19
  br i1 %20, label %21, label %51

21:                                               ; preds = %5
  call void @llvm.lifetime.start.p0(i64 4, ptr %12) #18
  %22 = getelementptr inbounds nuw %"class.gmx::analysismodules::(anonymous namespace)::ExtractCluster", ptr %13, i32 0, i32 6
  %23 = call noundef ptr @_ZNSt8optionalI13t_cluster_ndxEptEv(ptr noundef nonnull align 8 dereferenceable(64) %22) #18
  %24 = getelementptr inbounds nuw %struct.t_cluster_ndx, ptr %23, i32 0, i32 2
  %25 = load i32, ptr %7, align 4, !tbaa !57
  %26 = sext i32 %25 to i64
  %27 = call noundef nonnull align 4 dereferenceable(4) ptr @_ZNSt6vectorIiSaIiEEixEm(ptr noundef nonnull align 8 dereferenceable(24) %24, i64 noundef %26) #18
  %28 = load i32, ptr %27, align 4, !tbaa !57
  store i32 %28, ptr %12, align 4, !tbaa !57
  %29 = load i32, ptr %12, align 4, !tbaa !57
  %30 = icmp ne i32 %29, -1
  br i1 %30, label %31, label %47

31:                                               ; preds = %21
  %32 = load i32, ptr %12, align 4, !tbaa !57
  %33 = sext i32 %32 to i64
  %34 = getelementptr inbounds nuw %"class.gmx::analysismodules::(anonymous namespace)::ExtractCluster", ptr %13, i32 0, i32 6
  %35 = call noundef ptr @_ZNSt8optionalI13t_cluster_ndxEptEv(ptr noundef nonnull align 8 dereferenceable(64) %34) #18
  %36 = getelementptr inbounds nuw %struct.t_cluster_ndx, ptr %35, i32 0, i32 1
  %37 = call noundef i64 @_ZN3gmx5ssizeISt6vectorI10IndexGroupSaIS2_EEEElRKT_(ptr noundef nonnull align 8 dereferenceable(24) %36)
  %38 = icmp slt i64 %33, %37
  br i1 %38, label %39, label %47

39:                                               ; preds = %31
  %40 = getelementptr inbounds nuw %"class.gmx::analysismodules::(anonymous namespace)::ExtractCluster", ptr %13, i32 0, i32 1
  %41 = load i32, ptr %12, align 4, !tbaa !57
  %42 = sext i32 %41 to i64
  %43 = call noundef nonnull align 8 dereferenceable(8) ptr @_ZNSt6vectorISt10unique_ptrIN3gmx21TrajectoryFrameWriterESt14default_deleteIS2_EESaIS5_EEixEm(ptr noundef nonnull align 8 dereferenceable(24) %40, i64 noundef %42) #18
  %44 = call noundef ptr @_ZNKSt10unique_ptrIN3gmx21TrajectoryFrameWriterESt14default_deleteIS1_EEptEv(ptr noundef nonnull align 8 dereferenceable(8) %43) #18
  %45 = load i32, ptr %7, align 4, !tbaa !57
  %46 = load ptr, ptr %8, align 8, !tbaa !64
  call void @_ZN3gmx21TrajectoryFrameWriter20prepareAndWriteFrameEiRK10t_trxframe(ptr noundef nonnull align 8 dereferenceable(4272) %44, i32 noundef %45, ptr noundef nonnull align 1 %46)
  br label %50

47:                                               ; preds = %31, %21
  %48 = load i32, ptr %7, align 4, !tbaa !57
  %49 = call i32 (ptr, ...) @printf(ptr noundef @.str.18, i32 noundef %48)
  br label %50

50:                                               ; preds = %47, %39
  call void @llvm.lifetime.end.p0(i64 4, ptr %12) #18
  br label %51

51:                                               ; preds = %50, %5
  call void @llvm.lifetime.end.p0(i64 4, ptr %11) #18
  ret void
}