; Function Attrs: mustprogress uwtable
define internal void @_ZN3gmx15analysismodules12_GLOBAL__N_114ExtractCluster12analyzeFrameEiRK10t_trxframeP5t_pbcPNS_28TrajectoryAnalysisModuleDataE(ptr noundef nonnull readonly align 8 captures(none) dereferenceable(240) %0, i32 noundef %1, ptr noundef nonnull align 1 %2, ptr readnone captures(none) %3, ptr readnone captures(none) %4) unnamed_addr #0 align 2 {
  %6 = getelementptr inbounds nuw i8, ptr %0, i64 176
  %7 = load i32, ptr %6, align 8, !tbaa !83
  %.not = icmp sgt i32 %1, %7
  br i1 %.not, label %32, label %8

8:                                                ; preds = %5
  %9 = getelementptr inbounds nuw i8, ptr %0, i64 208
  %10 = sext i32 %1 to i64
  %11 = load ptr, ptr %9, align 8, !tbaa !97
  %12 = getelementptr inbounds nuw i32, ptr %11, i64 %10
  %13 = load i32, ptr %12, align 4, !tbaa !150
  %.not11 = icmp eq i32 %13, -1
  br i1 %.not11, label %30, label %14

14:                                               ; preds = %8
  %15 = sext i32 %13 to i64
  %16 = getelementptr inbounds nuw i8, ptr %0, i64 184
  %17 = getelementptr inbounds nuw i8, ptr %0, i64 192
  %18 = load ptr, ptr %17, align 8, !tbaa !95
  %19 = load ptr, ptr %16, align 8, !tbaa !94
  %20 = ptrtoint ptr %18 to i64
  %21 = ptrtoint ptr %19 to i64
  %22 = sub i64 %20, %21
  %23 = sdiv exact i64 %22, 56
  %24 = icmp sgt i64 %23, %15
  br i1 %24, label %25, label %30

25:                                               ; preds = %14
  %26 = getelementptr inbounds nuw i8, ptr %0, i64 16
  %27 = load ptr, ptr %26, align 8, !tbaa !41
  %28 = getelementptr inbounds nuw %"class.std::unique_ptr.30", ptr %27, i64 %15
  %29 = load ptr, ptr %28, align 8, !tbaa !45
  tail call void @_ZN3gmx21TrajectoryFrameWriter20prepareAndWriteFrameEiRK10t_trxframe(ptr noundef nonnull align 8 dereferenceable(4272) %29, i32 noundef %1, ptr noundef nonnull align 1 %2)
  br label %32

30:                                               ; preds = %14, %8
  %31 = tail call i32 (ptr, ...) @printf(ptr noundef nonnull dereferenceable(1) @.str.18, i32 noundef %1)
  br label %32

32:                                               ; preds = %25, %30, %5
  ret void
}